target datalayout = "e-m:e-p270:32:32-p271:32:32-p272:64:64-i64:64-i128:128-f80:128-n8:16:32:64-S128"
target triple = "x86_64-pc-linux-gnu"

%struct.H5D_shared_t = type { i64, i8, i64, ptr, ptr, i64, i64, %struct.H5D_dcpl_cache_t, %struct.H5O_layout_t, i8, i32, [32 x i64], [32 x i64], [32 x i64], %struct.anon.6, %struct.H5D_append_flush_t, ptr, ptr }
%struct.H5D_dcpl_cache_t = type { %struct.H5O_fill_t, %struct.H5O_pline_t, %struct.H5O_efl_t }
%struct.H5O_fill_t = type { %struct.H5O_shared_t, i32, ptr, i64, ptr, i32, i32, i8 }
%struct.H5O_shared_t = type { i32, ptr, i32, %union.anon }
%union.anon = type { %struct.H5O_mesg_loc_t }
%struct.H5O_mesg_loc_t = type { i32, i64 }
%struct.H5O_pline_t = type { %struct.H5O_shared_t, i32, i64, i64, ptr }
%struct.H5O_efl_t = type { i64, i64, i64, ptr }
%struct.H5O_layout_t = type { i32, i32, ptr, %union.anon.0, %struct.H5O_storage_t }
%union.anon.0 = type { %struct.H5O_layout_chunk_t }
%struct.H5O_layout_chunk_t = type { i32, i8, i32, [33 x i32], i32, i32, i64, i64, [33 x i64], [33 x i64], [33 x i64], [33 x i64], %union.anon.1 }
%union.anon.1 = type { %struct.H5O_layout_chunk_earray_t }
%struct.H5O_layout_chunk_earray_t = type { %struct.anon.2, i32, [33 x i32], [33 x i64], [33 x i64] }
%struct.anon.2 = type { i8, i8, i8, i8, i8 }
%struct.H5O_storage_t = type { i32, %union.anon.4 }
%union.anon.4 = type { %struct.H5O_storage_virtual_t }
%struct.H5O_storage_virtual_t = type { %struct.H5HG_t, i64, ptr, i64, [32 x i64], i32, i64, i64, i64, i8 }
%struct.H5HG_t = type { i64, i64 }
%struct.anon.6 = type { %struct.H5D_rdcdc_t, %struct.H5D_rdcc_t }
%struct.H5D_rdcdc_t = type { ptr, i64, i64, i64, i8 }
%struct.H5D_rdcc_t = type { %struct.anon.7, i64, i64, double, ptr, ptr, ptr, i64, i32, %struct.H5D_chunk_cached_t, ptr, ptr, ptr, ptr, [32 x i64], [32 x i64], [32 x i32] }
%struct.anon.7 = type { i32, i32, i32, i32 }
%struct.H5D_chunk_cached_t = type { i8, [33 x i64], i64, i32, i64, i32 }
%struct.H5D_append_flush_t = type { i32, [32 x i64], ptr, ptr }
%struct.H5D_t = type { %struct.H5O_loc_t, %struct.H5G_name_t, ptr }
%struct.H5O_loc_t = type { ptr, i64, i8 }
%struct.H5G_name_t = type { ptr, ptr, i32 }

@H5D_init_g = external global i8, align 1
@H5_libterm_g = external global i8, align 1
@.str.2 = private unnamed_addr constant [100 x i8] c"generated/home/dtcxzyw/WorkSpace/Projects/compilers/llvm-opt-benchmark/bench/hdf5/hdf5/src/H5Dint.c\00", align 1
@H5E_DATASET_g = external global i64, align 8
@H5E_CANTINC_g = external global i64, align 8
@H5E_CANTDEC_g = external global i64, align 8
@H5E_CANTFLUSH_g = external global i64, align 8
@__func__.H5D__refresh = private unnamed_addr constant [13 x i8] c"H5D__refresh\00", align 1
@.str.189 = private unnamed_addr constant [37 x i8] c"unable to hold VDS source files open\00", align 1
@.str.190 = private unnamed_addr constant [38 x i8] c"unable to refresh VDS source datasets\00", align 1
@.str.191 = private unnamed_addr constant [26 x i8] c"unable to refresh dataset\00", align 1
@.str.192 = private unnamed_addr constant [41 x i8] c"can't release VDS source files held open\00", align 1

; Function Attrs: nounwind uwtable
define i32 @H5D__refresh(ptr noundef %0, i64 noundef %1) #0 {
  %3 = alloca ptr, align 8
  %4 = alloca i64, align 8
  %5 = alloca ptr, align 8
  %6 = alloca i8, align 1
  %7 = alloca i32, align 4
  %8 = alloca i8, align 1
  store ptr %0, ptr %3, align 8, !tbaa !49
  store i64 %1, ptr %4, align 8, !tbaa !11
  call void @llvm.lifetime.start.p0(i64 8, ptr %5) #12
  store ptr null, ptr %5, align 8, !tbaa !219
  call void @llvm.lifetime.start.p0(i64 1, ptr %6) #12
  store i8 0, ptr %6, align 1, !tbaa !7
  call void @llvm.lifetime.start.p0(i64 4, ptr %7) #12
  store i32 0, ptr %7, align 4, !tbaa !3
  call void @llvm.lifetime.start.p0(i64 1, ptr %8) #12
  store i8 0, ptr %8, align 1, !tbaa !7
  %9 = load i8, ptr @H5D_init_g, align 1, !tbaa !7, !range !9, !noundef !10
  %10 = trunc i8 %9 to i1
  br i1 %10, label %15, label %11

11:                                               ; preds = %2
  %12 = load i8, ptr @H5_libterm_g, align 1, !tbaa !7, !range !9, !noundef !10
  %13 = trunc i8 %12 to i1
  %14 = xor i1 %13, true
  br label %15

15:                                               ; preds = %11, %2
  %16 = phi i1 [ true, %2 ], [ %14, %11 ]
  %17 = xor i1 %16, true
  %18 = xor i1 %17, true
  %19 = zext i1 %18 to i32
  %20 = sext i32 %19 to i64
  %21 = call i64 @llvm.expect.i64(i64 %20, i64 1)
  %22 = icmp ne i64 %21, 0
  br i1 %22, label %23, label %129

23:                                               ; preds = %15
  %24 = load ptr, ptr %3, align 8, !tbaa !49
  %25 = getelementptr inbounds nuw %struct.H5D_t, ptr %24, i32 0, i32 2
  %26 = load ptr, ptr %25, align 8, !tbaa !61
  %27 = getelementptr inbounds nuw %struct.H5D_shared_t, ptr %26, i32 0, i32 8
  %28 = getelementptr inbounds nuw %struct.H5O_layout_t, ptr %27, i32 0, i32 0
  %29 = load i32, ptr %28, align 8, !tbaa !67
  %30 = icmp eq i32 %29, 3
  br i1 %30, label %31, label %78

31:                                               ; preds = %23
  %32 = load ptr, ptr %3, align 8, !tbaa !49
  %33 = call i32 @H5D__virtual_hold_source_dset_files(ptr noundef %32, ptr noundef %5)
  %34 = icmp slt i32 %33, 0
  br i1 %34, label %35, label %54

35:                                               ; preds = %31
  br label %36

36:                                               ; preds = %35
  br label %37

37:                                               ; preds = %36
  br label %38

38:                                               ; preds = %37
  %39 = load i64, ptr @H5E_DATASET_g, align 8, !tbaa !11
  %40 = load i64, ptr @H5E_CANTINC_g, align 8, !tbaa !11
  %41 = call i32 (ptr, ptr, i32, i64, i64, ptr, ...) @H5E_printf_stack(ptr noundef @.str.2, ptr noundef @__func__.H5D__refresh, i32 noundef 4020, i64 noundef %39, i64 noundef %40, ptr noundef @.str.189)
  br label %42

42:                                               ; preds = %38
  br label %43

43:                                               ; preds = %42
  store i8 1, ptr %8, align 1, !tbaa !7
  %44 = load i8, ptr %8, align 1, !tbaa !7, !range !9, !noundef !10
  %45 = trunc i8 %44 to i1
  %46 = zext i1 %45 to i8
  store i8 %46, ptr %8, align 1, !tbaa !7
  br label %47

47:                                               ; preds = %43
  br label %48

48:                                               ; preds = %47
  br label %49

49:                                               ; preds = %48
  store i32 -1, ptr %7, align 4, !tbaa !3
  br label %104

50:                                               ; No predecessors!
  br label %51

51:                                               ; preds = %50
  br label %52

52:                                               ; preds = %51
  br label %53

53:                                               ; preds = %52
  br label %54

54:                                               ; preds = %53, %31
  store i8 1, ptr %6, align 1, !tbaa !7
  %55 = load ptr, ptr %3, align 8, !tbaa !49
  %56 = call i32 @H5D__virtual_refresh_source_dsets(ptr noundef %55)
  %57 = icmp slt i32 %56, 0
  br i1 %57, label %58, label %77

58:                                               ; preds = %54
  br label %59

59:                                               ; preds = %58
  br label %60

60:                                               ; preds = %59
  br label %61

61:                                               ; preds = %60
  %62 = load i64, ptr @H5E_DATASET_g, align 8, !tbaa !11
  %63 = load i64, ptr @H5E_CANTFLUSH_g, align 8, !tbaa !11
  %64 = call i32 (ptr, ptr, i32, i64, i64, ptr, ...) @H5E_printf_stack(ptr noundef @.str.2, ptr noundef @__func__.H5D__refresh, i32 noundef 4025, i64 noundef %62, i64 noundef %63, ptr noundef @.str.190)
  br label %65

65:                                               ; preds = %61
  br label %66

66:                                               ; preds = %65
  store i8 1, ptr %8, align 1, !tbaa !7
  %67 = load i8, ptr %8, align 1, !tbaa !7, !range !9, !noundef !10
  %68 = trunc i8 %67 to i1
  %69 = zext i1 %68 to i8
  store i8 %69, ptr %8, align 1, !tbaa !7
  br label %70

70:                                               ; preds = %66
  br label %71

71:                                               ; preds = %70
  br label %72

72:                                               ; preds = %71
  store i32 -1, ptr %7, align 4, !tbaa !3
  br label %104

73:                                               ; No predecessors!
  br label %74

74:                                               ; preds = %73
  br label %75

75:                                               ; preds = %74
  br label %76

76:                                               ; preds = %75
  br label %77

77:                                               ; preds = %76, %54
  br label %78

78:                                               ; preds = %77, %23
  %79 = load ptr, ptr %3, align 8, !tbaa !49
  %80 = getelementptr inbounds nuw %struct.H5D_t, ptr %79, i32 0, i32 0
  %81 = load i64, ptr %4, align 8, !tbaa !11
  %82 = call i32 @H5O_refresh_metadata(ptr noundef %80, i64 noundef %81)
  %83 = icmp slt i32 %82, 0
  br i1 %83, label %84, label %103

84:                                               ; preds = %78
  br label %85

85:                                               ; preds = %84
  br label %86

86:                                               ; preds = %85
  br label %87

87:                                               ; preds = %86
  %88 = load i64, ptr @H5E_DATASET_g, align 8, !tbaa !11
  %89 = load i64, ptr @H5E_CANTFLUSH_g, align 8, !tbaa !11
  %90 = call i32 (ptr, ptr, i32, i64, i64, ptr, ...) @H5E_printf_stack(ptr noundef @.str.2, ptr noundef @__func__.H5D__refresh, i32 noundef 4030, i64 noundef %88, i64 noundef %89, ptr noundef @.str.191)
  br label %91

91:                                               ; preds = %87
  br label %92

92:                                               ; preds = %91
  store i8 1, ptr %8, align 1, !tbaa !7
  %93 = load i8, ptr %8, align 1, !tbaa !7, !range !9, !noundef !10
  %94 = trunc i8 %93 to i1
  %95 = zext i1 %94 to i8
  store i8 %95, ptr %8, align 1, !tbaa !7
  br label %96

96:                                               ; preds = %92
  br label %97

97:                                               ; preds = %96
  br label %98

98:                                               ; preds = %97
  store i32 -1, ptr %7, align 4, !tbaa !3
  br label %104

99:                                               ; No predecessors!
  br label %100

100:                                              ; preds = %99
  br label %101

101:                                              ; preds = %100
  br label %102

102:                                              ; preds = %101
  br label %103

103:                                              ; preds = %102, %78
  br label %104

104:                                              ; preds = %103, %98, %72, %49
  %105 = load i8, ptr %6, align 1, !tbaa !7, !range !9, !noundef !10
  %106 = trunc i8 %105 to i1
  br i1 %106, label %107, label %128

107:                                              ; preds = %104
  %108 = load ptr, ptr %5, align 8, !tbaa !219
  %109 = call i32 @H5D__virtual_release_source_dset_files(ptr noundef %108)
  %110 = icmp slt i32 %109, 0
  br i1 %110, label %111, label %127

111:                                              ; preds = %107
  br label %112

112:                                              ; preds = %111
  br label %113

113:                                              ; preds = %112
  br label %114

114:                                              ; preds = %113
  %115 = load i64, ptr @H5E_DATASET_g, align 8, !tbaa !11
  %116 = load i64, ptr @H5E_CANTDEC_g, align 8, !tbaa !11
  %117 = call i32 (ptr, ptr, i32, i64, i64, ptr, ...) @H5E_printf_stack(ptr noundef @.str.2, ptr noundef @__func__.H5D__refresh, i32 noundef 4036, i64 noundef %115, i64 noundef %116, ptr noundef @.str.192)
  br label %118

118:                                              ; preds = %114
  br label %119

119:                                              ; preds = %118
  store i8 1, ptr %8, align 1, !tbaa !7
  %120 = load i8, ptr %8, align 1, !tbaa !7, !range !9, !noundef !10
  %121 = trunc i8 %120 to i1
  %122 = zext i1 %121 to i8
  store i8 %122, ptr %8, align 1, !tbaa !7
  br label %123

123:                                              ; preds = %119
  br label %124

124:                                              ; preds = %123
  store i32 -1, ptr %7, align 4, !tbaa !3
  br label %125

125:                                              ; preds = %124
  br label %126

126:                                              ; preds = %125
  br label %127

127:                                              ; preds = %126, %107
  br label %128

128:                                              ; preds = %127, %104
  br label %129

129:                                              ; preds = %128, %15
  %130 = load i32, ptr %7, align 4, !tbaa !3
  call void @llvm.lifetime.end.p0(i64 1, ptr %8) #12
  call void @llvm.lifetime.end.p0(i64 4, ptr %7) #12
  call void @llvm.lifetime.end.p0(i64 1, ptr %6) #12
  call void @llvm.lifetime.end.p0(i64 8, ptr %5) #12
  ret i32 %130
}