; Function Attrs: nounwind uwtable
define range(i32 -1, 1) i32 @H5D__refresh(ptr noundef %0, i64 noundef %1) local_unnamed_addr #0 {
  %3 = alloca ptr, align 8
  call void @llvm.lifetime.start.p0(i64 8, ptr nonnull %3) #12
  store ptr null, ptr %3, align 8, !tbaa !197
  %4 = load i8, ptr @H5D_init_g, align 1, !tbaa !3, !range !7, !noundef !8
  %5 = trunc nuw i8 %4 to i1
  %6 = load i8, ptr @H5_libterm_g, align 1, !range !7
  %7 = trunc nuw i8 %6 to i1
  %8 = xor i1 %7, true
  %9 = select i1 %5, i1 true, i1 %8
  br i1 %9, label %10, label %44, !prof !9

10:                                               ; preds = %2
  %11 = getelementptr inbounds nuw i8, ptr %0, i64 48
  %12 = load ptr, ptr %11, align 8, !tbaa !52
  %13 = getelementptr inbounds nuw i8, ptr %12, i64 248
  %14 = load i32, ptr %13, align 8, !tbaa !58
  %15 = icmp eq i32 %14, 3
  br i1 %15, label %16, label %28

16:                                               ; preds = %10
  %17 = call i32 @H5D__virtual_hold_source_dset_files(ptr noundef nonnull %0, ptr noundef nonnull %3) #12
  %18 = icmp slt i32 %17, 0
  br i1 %18, label %.thread15, label %22

.thread15:                                        ; preds = %16
  %19 = load i64, ptr @H5E_DATASET_g, align 8, !tbaa !10
  %20 = load i64, ptr @H5E_CANTINC_g, align 8, !tbaa !10
  %21 = call i32 (ptr, ptr, i32, i64, i64, ptr, ...) @H5E_printf_stack(ptr noundef nonnull @.str.2, ptr noundef nonnull @__func__.H5D__refresh, i32 noundef 4020, i64 noundef %19, i64 noundef %20, ptr noundef nonnull @.str.189) #12
  br label %44

22:                                               ; preds = %16
  %23 = call i32 @H5D__virtual_refresh_source_dsets(ptr noundef nonnull %0) #12
  %24 = icmp slt i32 %23, 0
  br i1 %24, label %.thread, label %28

.thread:                                          ; preds = %22
  %25 = load i64, ptr @H5E_DATASET_g, align 8, !tbaa !10
  %26 = load i64, ptr @H5E_CANTFLUSH_g, align 8, !tbaa !10
  %27 = call i32 (ptr, ptr, i32, i64, i64, ptr, ...) @H5E_printf_stack(ptr noundef nonnull @.str.2, ptr noundef nonnull @__func__.H5D__refresh, i32 noundef 4025, i64 noundef %25, i64 noundef %26, ptr noundef nonnull @.str.190) #12
  br label %36

28:                                               ; preds = %22, %10
  %29 = call i32 @H5O_refresh_metadata(ptr noundef nonnull %0, i64 noundef %1) #12
  %30 = icmp slt i32 %29, 0
  br i1 %30, label %31, label %35

31:                                               ; preds = %28
  %32 = load i64, ptr @H5E_DATASET_g, align 8, !tbaa !10
  %33 = load i64, ptr @H5E_CANTFLUSH_g, align 8, !tbaa !10
  %34 = call i32 (ptr, ptr, i32, i64, i64, ptr, ...) @H5E_printf_stack(ptr noundef nonnull @.str.2, ptr noundef nonnull @__func__.H5D__refresh, i32 noundef 4030, i64 noundef %32, i64 noundef %33, ptr noundef nonnull @.str.191) #12
  br label %35

35:                                               ; preds = %28, %31
  %.1 = phi i32 [ -1, %31 ], [ 0, %28 ]
  br i1 %15, label %36, label %44

36:                                               ; preds = %.thread, %35
  %.114 = phi i32 [ -1, %.thread ], [ %.1, %35 ]
  %37 = load ptr, ptr %3, align 8, !tbaa !197
  %38 = call i32 @H5D__virtual_release_source_dset_files(ptr noundef %37) #12
  %39 = icmp slt i32 %38, 0
  br i1 %39, label %40, label %44

40:                                               ; preds = %36
  %41 = load i64, ptr @H5E_DATASET_g, align 8, !tbaa !10
  %42 = load i64, ptr @H5E_CANTDEC_g, align 8, !tbaa !10
  %43 = call i32 (ptr, ptr, i32, i64, i64, ptr, ...) @H5E_printf_stack(ptr noundef nonnull @.str.2, ptr noundef nonnull @__func__.H5D__refresh, i32 noundef 4036, i64 noundef %41, i64 noundef %42, ptr noundef nonnull @.str.192) #12
  br label %44

44:                                               ; preds = %.thread15, %35, %40, %36, %2
  %.0 = phi i32 [ -1, %40 ], [ %.114, %36 ], [ %.1, %35 ], [ 0, %2 ], [ -1, %.thread15 ]
  call void @llvm.lifetime.end.p0(i64 8, ptr nonnull %3) #12
  ret i32 %.0
}